target datalayout = "e-m:e-p270:32:32-p271:32:32-p272:64:64-i64:64-i128:128-f80:128-n8:16:32:64-S128"
target triple = "x86_64-pc-linux-gnu"

%"class.duckdb_re2::Prog" = type { i8, i8, i8, i8, i8, i32, i32, i32, i32, i8, i64, %union.anon, i32, [8 x i32], %"class.duckdb_re2::PODArray.4", i64, %"class.duckdb_re2::PODArray.13", %"class.duckdb_re2::PODArray.22", i64, ptr, ptr, [256 x i8], %"struct.std::once_flag", %"struct.std::once_flag" }
%union.anon = type { ptr }
%"class.duckdb_re2::PODArray.4" = type { %"class.std::unique_ptr.5" }
%"class.std::unique_ptr.5" = type { %"struct.std::__uniq_ptr_data.6" }
%"struct.std::__uniq_ptr_data.6" = type { %"class.std::__uniq_ptr_impl.7" }
%"class.std::__uniq_ptr_impl.7" = type { %"class.std::tuple.8" }
%"class.std::tuple.8" = type { %"struct.std::_Tuple_impl.9" }
%"struct.std::_Tuple_impl.9" = type { %"struct.std::_Tuple_impl.10", %"struct.std::_Head_base.12" }
%"struct.std::_Tuple_impl.10" = type { %"struct.std::_Head_base.11" }
%"struct.std::_Head_base.11" = type { %"struct.duckdb_re2::PODArray<unsigned short>::Deleter" }
%"struct.duckdb_re2::PODArray<unsigned short>::Deleter" = type { i32 }
%"struct.std::_Head_base.12" = type { ptr }
%"class.duckdb_re2::PODArray.13" = type { %"class.std::unique_ptr.14" }
%"class.std::unique_ptr.14" = type { %"struct.std::__uniq_ptr_data.15" }
%"struct.std::__uniq_ptr_data.15" = type { %"class.std::__uniq_ptr_impl.16" }
%"class.std::__uniq_ptr_impl.16" = type { %"class.std::tuple.17" }
%"class.std::tuple.17" = type { %"struct.std::_Tuple_impl.18" }
%"struct.std::_Tuple_impl.18" = type { %"struct.std::_Tuple_impl.19", %"struct.std::_Head_base.21" }
%"struct.std::_Tuple_impl.19" = type { %"struct.std::_Head_base.20" }
%"struct.std::_Head_base.20" = type { %"struct.duckdb_re2::PODArray<duckdb_re2::Prog::Inst>::Deleter" }
%"struct.duckdb_re2::PODArray<duckdb_re2::Prog::Inst>::Deleter" = type { i32 }
%"struct.std::_Head_base.21" = type { ptr }
%"class.duckdb_re2::PODArray.22" = type { %"class.std::unique_ptr.23" }
%"class.std::unique_ptr.23" = type { %"struct.std::__uniq_ptr_data.24" }
%"struct.std::__uniq_ptr_data.24" = type { %"class.std::__uniq_ptr_impl.25" }
%"class.std::__uniq_ptr_impl.25" = type { %"class.std::tuple.26" }
%"class.std::tuple.26" = type { %"struct.std::_Tuple_impl.27" }
%"struct.std::_Tuple_impl.27" = type { %"struct.std::_Tuple_impl.28", %"struct.std::_Head_base.30" }
%"struct.std::_Tuple_impl.28" = type { %"struct.std::_Head_base.29" }
%"struct.std::_Head_base.29" = type { %"struct.duckdb_re2::PODArray<unsigned char>::Deleter" }
%"struct.duckdb_re2::PODArray<unsigned char>::Deleter" = type { i32 }
%"struct.std::_Head_base.30" = type { ptr }
%"struct.std::once_flag" = type { i32 }
%class.anon.88 = type { ptr, ptr }
%class.anon.89 = type { i8 }

@_ZSt15__once_callable = external thread_local global ptr, align 8
@_ZN10duckdb_re23DFAC1EPNS_4ProgENS1_9MatchKindEl = hidden unnamed_addr alias void (ptr, ptr, i32, i64), ptr @_ZN10duckdb_re23DFAC2EPNS_4ProgENS1_9MatchKindEl

; Function Attrs: inlinehint mustprogress uwtable
define internal void @"_ZZN10duckdb_re24Prog6GetDFAENS0_9MatchKindEENK3$_0clEPS0_"(ptr noundef nonnull align 1 dereferenceable(1) %0, ptr noundef %1) #2 align 2 personality ptr @__gxx_personality_v0 {
  %3 = alloca ptr, align 8
  %4 = alloca ptr, align 8
  %5 = alloca ptr, align 8
  %6 = alloca i32, align 4
  store ptr %0, ptr %3, align 8, !tbaa !145
  store ptr %1, ptr %4, align 8, !tbaa !12
  %7 = call noalias noundef nonnull ptr @_Znwm(i64 noundef 296) #18
  %8 = load ptr, ptr %4, align 8, !tbaa !12
  %9 = load ptr, ptr %4, align 8, !tbaa !12
  %10 = getelementptr inbounds nuw %"class.duckdb_re2::Prog", ptr %9, i32 0, i32 18
  %11 = load i64, ptr %10, align 8, !tbaa !559
  %12 = sdiv i64 %11, 2
  invoke void @_ZN10duckdb_re23DFAC1EPNS_4ProgENS1_9MatchKindEl(ptr noundef nonnull align 8 dereferenceable(296) %7, ptr noundef %8, i32 noundef 0, i64 noundef %12)
          to label %13 unwind label %16

13:                                               ; preds = %2
  %14 = load ptr, ptr %4, align 8, !tbaa !12
  %15 = getelementptr inbounds nuw %"class.duckdb_re2::Prog", ptr %14, i32 0, i32 19
  store ptr %7, ptr %15, align 8, !tbaa !252
  ret void

16:                                               ; preds = %2
  %17 = landingpad { ptr, i32 }
          cleanup
  %18 = extractvalue { ptr, i32 } %17, 0
  store ptr %18, ptr %5, align 8
  %19 = extractvalue { ptr, i32 } %17, 1
  store i32 %19, ptr %6, align 4
  call void @_ZdlPv(ptr noundef %7) #19
  br label %20

20:                                               ; preds = %16
  %21 = load ptr, ptr %5, align 8
  %22 = load i32, ptr %6, align 4
  %23 = insertvalue { ptr, i32 } poison, ptr %21, 0
  %24 = insertvalue { ptr, i32 } %23, i32 %22, 1
  resume { ptr, i32 } %24
}

; Function Attrs: mustprogress uwtable
define internal void @"_ZSt13__invoke_implIvZN10duckdb_re24Prog6GetDFAENS1_9MatchKindEE3$_0JPS1_EET_St14__invoke_otherOT0_DpOT1_"(ptr noundef nonnull align 1 dereferenceable(1) %0, ptr noundef nonnull align 8 dereferenceable(8) %1) #1 {
  %3 = alloca ptr, align 8
  %4 = alloca ptr, align 8
  store ptr %0, ptr %3, align 8, !tbaa !145
  store ptr %1, ptr %4, align 8, !tbaa !256
  %5 = load ptr, ptr %3, align 8, !tbaa !145
  %6 = load ptr, ptr %4, align 8, !tbaa !256
  %7 = load ptr, ptr %6, align 8, !tbaa !12
  call void @"_ZZN10duckdb_re24Prog6GetDFAENS0_9MatchKindEENK3$_0clEPS0_"(ptr noundef nonnull align 1 dereferenceable(1) %5, ptr noundef %7)
  ret void
}

; Function Attrs: mustprogress uwtable
define internal void @"_ZSt8__invokeIZN10duckdb_re24Prog6GetDFAENS1_9MatchKindEE3$_0JPS1_EENSt15__invoke_resultIT_JDpT0_EE4typeEOS6_DpOS7_"(ptr noundef nonnull align 1 dereferenceable(1) %0, ptr noundef nonnull align 8 dereferenceable(8) %1) #1 {
  %3 = alloca ptr, align 8
  %4 = alloca ptr, align 8
  store ptr %0, ptr %3, align 8, !tbaa !145
  store ptr %1, ptr %4, align 8, !tbaa !256
  %5 = load ptr, ptr %3, align 8, !tbaa !145
  %6 = load ptr, ptr %4, align 8, !tbaa !256
  call void @"_ZSt13__invoke_implIvZN10duckdb_re24Prog6GetDFAENS1_9MatchKindEE3$_0JPS1_EET_St14__invoke_otherOT0_DpOT1_"(ptr noundef nonnull align 1 dereferenceable(1) %5, ptr noundef nonnull align 8 dereferenceable(8) %6)
  ret void
}

; Function Attrs: inlinehint mustprogress uwtable
define internal void @"_ZZSt9call_onceIZN10duckdb_re24Prog6GetDFAENS1_9MatchKindEE3$_0JPS1_EEvRSt9once_flagOT_DpOT0_ENKUlvE_clEv"(ptr noundef nonnull align 8 dereferenceable(16) %0) #2 align 2 {
  %2 = alloca ptr, align 8
  store ptr %0, ptr %2, align 8, !tbaa !145
  %3 = load ptr, ptr %2, align 8
  %4 = getelementptr inbounds nuw %class.anon.88, ptr %3, i32 0, i32 0
  %5 = load ptr, ptr %4, align 8, !tbaa !556
  %6 = getelementptr inbounds nuw %class.anon.88, ptr %3, i32 0, i32 1
  %7 = load ptr, ptr %6, align 8, !tbaa !558
  call void @"_ZSt8__invokeIZN10duckdb_re24Prog6GetDFAENS1_9MatchKindEE3$_0JPS1_EENSt15__invoke_resultIT_JDpT0_EE4typeEOS6_DpOS7_"(ptr noundef nonnull align 1 dereferenceable(1) %5, ptr noundef nonnull align 8 dereferenceable(8) %7)
  ret void
}

; Function Attrs: inlinehint mustprogress uwtable
define internal void @"_ZZNSt9once_flag18_Prepare_executionC1IZSt9call_onceIZN10duckdb_re24Prog6GetDFAENS4_9MatchKindEE3$_0JPS4_EEvRS_OT_DpOT0_EUlvE_EERS9_ENKUlvE_clEv"(ptr noundef nonnull align 1 dereferenceable(1) %0) #2 align 2 {
  %2 = alloca ptr, align 8
  store ptr %0, ptr %2, align 8, !tbaa !145
  %3 = call align 8 ptr @llvm.threadlocal.address.p0(ptr align 8 @_ZSt15__once_callable)
  %4 = load ptr, ptr %3, align 8, !tbaa !145
  call void @"_ZZSt9call_onceIZN10duckdb_re24Prog6GetDFAENS1_9MatchKindEE3$_0JPS1_EEvRSt9once_flagOT_DpOT0_ENKUlvE_clEv"(ptr noundef nonnull align 8 dereferenceable(16) %4)
  ret void
}

; Function Attrs: inlinehint mustprogress uwtable
define internal void @"_ZZNSt9once_flag18_Prepare_executionC1IZSt9call_onceIZN10duckdb_re24Prog6GetDFAENS4_9MatchKindEE3$_0JPS4_EEvRS_OT_DpOT0_EUlvE_EERS9_ENUlvE_8__invokeEv"() #2 align 2 {
  %1 = alloca %class.anon.89, align 1
  call void @"_ZZNSt9once_flag18_Prepare_executionC1IZSt9call_onceIZN10duckdb_re24Prog6GetDFAENS4_9MatchKindEE3$_0JPS4_EEvRS_OT_DpOT0_EUlvE_EERS9_ENKUlvE_clEv"(ptr noundef nonnull align 1 dereferenceable(1) %1)
  ret void
}