; Function Attrs: inlinehint mustprogress uwtable
define internal void @"_ZZNSt9once_flag18_Prepare_executionC1IZSt9call_onceIZN10duckdb_re24Prog6GetDFAENS4_9MatchKindEE3$_0JPS4_EEvRS_OT_DpOT0_EUlvE_EERS9_ENUlvE_8__invokeEv"() #11 align 2 personality ptr @__gxx_personality_v0 {
  %1 = tail call align 8 ptr @llvm.threadlocal.address.p0(ptr align 8 @_ZSt15__once_callable)
  %2 = load ptr, ptr %1, align 8, !tbaa !222
  %3 = getelementptr i8, ptr %2, i64 8
  %.val.i = load ptr, ptr %3, align 8, !tbaa !289
  %.val.val.i = load ptr, ptr %.val.i, align 8, !tbaa !221
  %4 = tail call noalias noundef nonnull dereferenceable(296) ptr @_Znwm(i64 noundef 296) #22
  %5 = getelementptr inbounds nuw i8, ptr %.val.val.i, i64 144
  %6 = load i64, ptr %5, align 8, !tbaa !291
  %7 = sdiv i64 %6, 2
  invoke void @_ZN10duckdb_re23DFAC2EPNS_4ProgENS1_9MatchKindEl(ptr noundef nonnull align 8 dereferenceable(296) %4, ptr noundef nonnull %.val.val.i, i32 noundef 0, i64 noundef %7)
          to label %"_ZZNSt9once_flag18_Prepare_executionC1IZSt9call_onceIZN10duckdb_re24Prog6GetDFAENS4_9MatchKindEE3$_0JPS4_EEvRS_OT_DpOT0_EUlvE_EERS9_ENKUlvE_clEv.exit" unwind label %8

8:                                                ; preds = %0
  %9 = landingpad { ptr, i32 }
          cleanup
  tail call void @_ZdlPv(ptr noundef nonnull %4) #23
  resume { ptr, i32 } %9

"_ZZNSt9once_flag18_Prepare_executionC1IZSt9call_onceIZN10duckdb_re24Prog6GetDFAENS4_9MatchKindEE3$_0JPS4_EEvRS_OT_DpOT0_EUlvE_EERS9_ENKUlvE_clEv.exit": ; preds = %0
  %10 = getelementptr inbounds nuw i8, ptr %.val.val.i, i64 152
  store ptr %4, ptr %10, align 8, !tbaa !292
  ret void
}